; Function Attrs: mustprogress nounwind uwtable
define void @_ZN5boost6locale9generator11clear_cacheEv(ptr nocapture noundef nonnull readonly align 8 dereferenceable(8) %0) local_unnamed_addr #10 align 2 personality ptr @__gxx_personality_v0 {
  %2 = load ptr, ptr %0, align 8, !tbaa !17
  %3 = getelementptr inbounds i8, ptr %2, i64 16
  %4 = load ptr, ptr %3, align 8, !tbaa !23
  invoke void @_ZNSt8_Rb_treeINSt7__cxx1112basic_stringIcSt11char_traitsIcESaIcEEESt4pairIKS5_St6localeESt10_Select1stIS9_ESt4lessIS5_ESaIS9_EE8_M_eraseEPSt13_Rb_tree_nodeIS9_E(ptr noundef nonnull align 8 dereferenceable(48) %2, ptr noundef %4)
          to label %_ZNSt3mapINSt7__cxx1112basic_stringIcSt11char_traitsIcESaIcEEESt6localeSt4lessIS5_ESaISt4pairIKS5_S6_EEE5clearEv.exit unwind label %5

5:                                                ; preds = %1
  %6 = landingpad { ptr, i32 }
          catch ptr null
  %7 = extractvalue { ptr, i32 } %6, 0
  tail call void @__clang_call_terminate(ptr %7) #29
  unreachable

_ZNSt3mapINSt7__cxx1112basic_stringIcSt11char_traitsIcESaIcEEESt6localeSt4lessIS5_ESaISt4pairIKS5_S6_EEE5clearEv.exit: ; preds = %1
  %8 = getelementptr inbounds i8, ptr %2, i64 8
  store ptr null, ptr %3, align 8, !tbaa !23
  %9 = getelementptr inbounds i8, ptr %2, i64 24
  store ptr %8, ptr %9, align 8, !tbaa !24
  %10 = getelementptr inbounds i8, ptr %2, i64 32
  store ptr %8, ptr %10, align 8, !tbaa !25
  %11 = getelementptr inbounds i8, ptr %2, i64 40
  store i64 0, ptr %11, align 8, !tbaa !26
  ret void
}